; Function Attrs: nounwind uwtable
define noalias nonnull ptr @l_Std_Time_Duration_instHMulInt__1(ptr noundef readonly captures(none) %0, ptr noundef %1) local_unnamed_addr #0 {
  %3 = getelementptr inbounds nuw i8, ptr %0, i64 8
  %4 = load ptr, ptr %3, align 8, !tbaa !4
  %5 = load ptr, ptr @l_Std_Time_Duration_ofNanoseconds___closed__1, align 8, !tbaa !4
  %6 = ptrtoint ptr %4 to i64
  %7 = and i64 %6, 1
  %.not.i19 = icmp eq i64 %7, 0
  br i1 %.not.i19, label %.critedge.i, label %8, !prof !8

8:                                                ; preds = %2
  %9 = ptrtoint ptr %5 to i64
  %10 = and i64 %9, 1
  %.not7.i = icmp eq i64 %10, 0
  br i1 %.not7.i, label %.critedge.i, label %11, !prof !8

11:                                               ; preds = %8
  %12 = shl i64 %6, 31
  %13 = ashr i64 %12, 32
  %14 = shl i64 %9, 31
  %15 = ashr i64 %14, 32
  %16 = mul nsw i64 %15, %13
  %17 = add nsw i64 %16, 2147483648
  %18 = icmp ult i64 %17, 4294967296
  br i1 %18, label %19, label %24, !prof !14

19:                                               ; preds = %11
  %20 = shl nsw i64 %16, 1
  %21 = and i64 %20, 8589934590
  %22 = or disjoint i64 %21, 1
  %23 = inttoptr i64 %22 to ptr
  br label %lean_int_mul.exit

24:                                               ; preds = %11
  %25 = tail call ptr @lean_big_int64_to_int(i64 noundef range(i64 -4611686016279904256, 4611686018427387905) %16) #3
  br label %lean_int_mul.exit

.critedge.i:                                      ; preds = %8, %2
  %26 = tail call ptr @lean_int_big_mul(ptr noundef %4, ptr noundef %5) #3
  br label %lean_int_mul.exit

lean_int_mul.exit:                                ; preds = %19, %24, %.critedge.i
  %.0.i = phi ptr [ %26, %.critedge.i ], [ %23, %19 ], [ %25, %24 ]
  %27 = getelementptr inbounds nuw i8, ptr %0, i64 16
  %28 = load ptr, ptr %27, align 8, !tbaa !4
  %29 = ptrtoint ptr %.0.i to i64
  %30 = and i64 %29, 1
  %.not.i20 = icmp eq i64 %30, 0
  br i1 %.not.i20, label %50, label %31, !prof !8

31:                                               ; preds = %lean_int_mul.exit
  %32 = ptrtoint ptr %28 to i64
  %33 = and i64 %32, 1
  %.not7.i21 = icmp eq i64 %33, 0
  br i1 %.not7.i21, label %lean_int_add.exit.thread31, label %35, !prof !8

lean_int_add.exit.thread31:                       ; preds = %31
  %34 = tail call ptr @lean_int_big_add(ptr noundef %.0.i, ptr noundef %28) #3
  br label %lean_dec.exit14

35:                                               ; preds = %31
  %36 = shl i64 %29, 31
  %37 = ashr i64 %36, 32
  %38 = shl i64 %32, 31
  %39 = ashr i64 %38, 32
  %40 = add nsw i64 %39, %37
  %41 = add nsw i64 %40, 2147483648
  %42 = icmp ult i64 %41, 4294967296
  br i1 %42, label %43, label %48, !prof !14

43:                                               ; preds = %35
  %44 = shl nsw i64 %40, 1
  %45 = and i64 %44, 8589934590
  %46 = or disjoint i64 %45, 1
  %47 = inttoptr i64 %46 to ptr
  br label %lean_dec.exit14

48:                                               ; preds = %35
  %49 = tail call ptr @lean_big_int64_to_int(i64 noundef range(i64 -4611686016279904256, 4611686018427387905) %40) #3
  br label %lean_dec.exit14

50:                                               ; preds = %lean_int_mul.exit
  %51 = tail call ptr @lean_int_big_add(ptr noundef %.0.i, ptr noundef %28) #3
  %52 = load i32, ptr %.0.i, align 4, !tbaa !9
  %53 = icmp sgt i32 %52, 1
  br i1 %53, label %54, label %56, !prof !14

54:                                               ; preds = %50
  %55 = add nsw i32 %52, -1
  store i32 %55, ptr %.0.i, align 4, !tbaa !9
  br label %lean_dec.exit14

56:                                               ; preds = %50
  %.not.i = icmp eq i32 %52, 0
  br i1 %.not.i, label %lean_dec.exit14, label %57

57:                                               ; preds = %56
  tail call void @lean_dec_ref_cold(ptr noundef nonnull %.0.i) #3
  br label %lean_dec.exit14

lean_dec.exit14:                                  ; preds = %48, %43, %57, %56, %54, %lean_int_add.exit.thread31
  %.0.i2230 = phi ptr [ %34, %lean_int_add.exit.thread31 ], [ %51, %54 ], [ %51, %56 ], [ %51, %57 ], [ %49, %48 ], [ %47, %43 ]
  %58 = ptrtoint ptr %.0.i2230 to i64
  %59 = and i64 %58, 1
  %.not.i24 = icmp eq i64 %59, 0
  br i1 %.not.i24, label %79, label %60, !prof !8

60:                                               ; preds = %lean_dec.exit14
  %61 = ptrtoint ptr %1 to i64
  %62 = and i64 %61, 1
  %.not7.i25 = icmp eq i64 %62, 0
  br i1 %.not7.i25, label %lean_int_mul.exit28.thread34, label %64, !prof !8

lean_int_mul.exit28.thread34:                     ; preds = %60
  %63 = tail call ptr @lean_int_big_mul(ptr noundef %.0.i2230, ptr noundef %1) #3
  br label %lean_dec.exit13

64:                                               ; preds = %60
  %65 = shl i64 %58, 31
  %66 = ashr i64 %65, 32
  %67 = shl i64 %61, 31
  %68 = ashr i64 %67, 32
  %69 = mul nsw i64 %66, %68
  %70 = add nsw i64 %69, 2147483648
  %71 = icmp ult i64 %70, 4294967296
  br i1 %71, label %72, label %77, !prof !14

72:                                               ; preds = %64
  %73 = shl nsw i64 %69, 1
  %74 = and i64 %73, 8589934590
  %75 = or disjoint i64 %74, 1
  %76 = inttoptr i64 %75 to ptr
  br label %lean_dec.exit13

77:                                               ; preds = %64
  %78 = tail call ptr @lean_big_int64_to_int(i64 noundef range(i64 -4611686016279904256, 4611686018427387905) %69) #3
  br label %lean_dec.exit13

79:                                               ; preds = %lean_dec.exit14
  %80 = tail call ptr @lean_int_big_mul(ptr noundef %.0.i2230, ptr noundef %1) #3
  %81 = load i32, ptr %.0.i2230, align 4, !tbaa !9
  %82 = icmp sgt i32 %81, 1
  br i1 %82, label %83, label %85, !prof !14

83:                                               ; preds = %79
  %84 = add nsw i32 %81, -1
  store i32 %84, ptr %.0.i2230, align 4, !tbaa !9
  br label %lean_dec.exit13

85:                                               ; preds = %79
  %.not.i15 = icmp eq i32 %81, 0
  br i1 %.not.i15, label %lean_dec.exit13, label %86

86:                                               ; preds = %85
  tail call void @lean_dec_ref_cold(ptr noundef nonnull %.0.i2230) #3
  br label %lean_dec.exit13

lean_dec.exit13:                                  ; preds = %77, %72, %86, %85, %83, %lean_int_mul.exit28.thread34
  %.0.i2633 = phi ptr [ %63, %lean_int_mul.exit28.thread34 ], [ %80, %83 ], [ %80, %85 ], [ %80, %86 ], [ %78, %77 ], [ %76, %72 ]
  %87 = tail call ptr @l_Std_Time_Duration_ofNanoseconds(ptr noundef %.0.i2633)
  %88 = ptrtoint ptr %.0.i2633 to i64
  %89 = and i64 %88, 1
  %.not = icmp eq i64 %89, 0
  br i1 %.not, label %90, label %lean_dec.exit

90:                                               ; preds = %lean_dec.exit13
  %91 = load i32, ptr %.0.i2633, align 4, !tbaa !9
  %92 = icmp sgt i32 %91, 1
  br i1 %92, label %93, label %95, !prof !14

93:                                               ; preds = %90
  %94 = add nsw i32 %91, -1
  store i32 %94, ptr %.0.i2633, align 4, !tbaa !9
  br label %lean_dec.exit

95:                                               ; preds = %90
  %.not.i17 = icmp eq i32 %91, 0
  br i1 %.not.i17, label %lean_dec.exit, label %96

96:                                               ; preds = %95
  tail call void @lean_dec_ref_cold(ptr noundef nonnull %.0.i2633) #3
  br label %lean_dec.exit

lean_dec.exit:                                    ; preds = %96, %95, %93, %lean_dec.exit13
  ret ptr %87
}